target datalayout = "e-m:e-p270:32:32-p271:32:32-p272:64:64-i64:64-i128:128-f80:128-n8:16:32:64-S128"
target triple = "x86_64-pc-linux-gnu"

%struct.forward = type { %struct.slurm_node_alias_addrs_t, i16, i16, ptr, i32, i16, i16 }
%struct.slurm_node_alias_addrs_t = type { i64, ptr, ptr, i32, ptr }
%struct.sockaddr_storage = type { i16, [118 x i8], i64 }
%struct.slurm_msg = type { %struct.sockaddr_storage, ptr, i32, i32, i32, i8, i32, i8, i32, ptr, ptr, i32, ptr, ptr, i16, i8, i16, i16, %struct.forward, ptr, %struct.sockaddr_storage, ptr }
%struct.submit_response_msg = type { i32, i32, i32, ptr }

; Function Attrs: nounwind uwtable
define internal void @_pack_submit_response_msg(ptr noundef %0, ptr noundef %1) #0 {
  %3 = alloca ptr, align 8
  %4 = alloca ptr, align 8
  %5 = alloca ptr, align 8
  %6 = alloca i32, align 4
  store ptr %0, ptr %3, align 8
  store ptr %1, ptr %4, align 8
  call void @llvm.lifetime.start.p0(i64 8, ptr %5) #6
  %7 = load ptr, ptr %3, align 8
  %8 = getelementptr inbounds nuw %struct.slurm_msg, ptr %7, i32 0, i32 13
  %9 = load ptr, ptr %8, align 8
  store ptr %9, ptr %5, align 8
  %10 = load ptr, ptr %3, align 8
  %11 = getelementptr inbounds nuw %struct.slurm_msg, ptr %10, i32 0, i32 17
  %12 = load i16, ptr %11, align 2
  %13 = zext i16 %12 to i32
  %14 = icmp sge i32 %13, 10240
  br i1 %14, label %15, label %48

15:                                               ; preds = %2
  %16 = load ptr, ptr %5, align 8
  %17 = getelementptr inbounds nuw %struct.submit_response_msg, ptr %16, i32 0, i32 0
  %18 = load i32, ptr %17, align 8
  %19 = load ptr, ptr %4, align 8
  call void @pack32(i32 noundef %18, ptr noundef %19)
  %20 = load ptr, ptr %5, align 8
  %21 = getelementptr inbounds nuw %struct.submit_response_msg, ptr %20, i32 0, i32 1
  %22 = load i32, ptr %21, align 4
  %23 = load ptr, ptr %4, align 8
  call void @pack32(i32 noundef %22, ptr noundef %23)
  %24 = load ptr, ptr %5, align 8
  %25 = getelementptr inbounds nuw %struct.submit_response_msg, ptr %24, i32 0, i32 2
  %26 = load i32, ptr %25, align 8
  %27 = load ptr, ptr %4, align 8
  call void @pack32(i32 noundef %26, ptr noundef %27)
  br label %28

28:                                               ; preds = %15
  call void @llvm.lifetime.start.p0(i64 4, ptr %6) #6
  store i32 0, ptr %6, align 4
  %29 = load ptr, ptr %5, align 8
  %30 = getelementptr inbounds nuw %struct.submit_response_msg, ptr %29, i32 0, i32 3
  %31 = load ptr, ptr %30, align 8
  %32 = icmp ne ptr %31, null
  br i1 %32, label %33, label %40

33:                                               ; preds = %28
  %34 = load ptr, ptr %5, align 8
  %35 = getelementptr inbounds nuw %struct.submit_response_msg, ptr %34, i32 0, i32 3
  %36 = load ptr, ptr %35, align 8
  %37 = call i64 @strlen(ptr noundef %36) #7
  %38 = trunc i64 %37 to i32
  %39 = add i32 %38, 1
  store i32 %39, ptr %6, align 4
  br label %40

40:                                               ; preds = %33, %28
  %41 = load ptr, ptr %5, align 8
  %42 = getelementptr inbounds nuw %struct.submit_response_msg, ptr %41, i32 0, i32 3
  %43 = load ptr, ptr %42, align 8
  %44 = load i32, ptr %6, align 4
  %45 = load ptr, ptr %4, align 8
  call void @packmem(ptr noundef %43, i32 noundef %44, ptr noundef %45)
  call void @llvm.lifetime.end.p0(i64 4, ptr %6) #6
  br label %46

46:                                               ; preds = %40
  br label %47

47:                                               ; preds = %46
  br label %48

48:                                               ; preds = %47, %2
  call void @llvm.lifetime.end.p0(i64 8, ptr %5) #6
  ret void
}