; Function Attrs: nounwind uwtable
define internal fastcc void @_pack_submit_response_msg(ptr noundef readonly captures(none) %0, ptr noundef %1) unnamed_addr #0 {
  %3 = getelementptr inbounds nuw i8, ptr %0, i64 214
  %4 = load i16, ptr %3, align 2
  %5 = icmp ugt i16 %4, 10239
  br i1 %5, label %6, label %21

6:                                                ; preds = %2
  %7 = getelementptr inbounds nuw i8, ptr %0, i64 200
  %8 = load ptr, ptr %7, align 8
  %9 = load i32, ptr %8, align 8
  tail call void @pack32(i32 noundef %9, ptr noundef %1) #7
  %10 = getelementptr inbounds nuw i8, ptr %8, i64 4
  %11 = load i32, ptr %10, align 4
  tail call void @pack32(i32 noundef %11, ptr noundef %1) #7
  %12 = getelementptr inbounds nuw i8, ptr %8, i64 8
  %13 = load i32, ptr %12, align 8
  tail call void @pack32(i32 noundef %13, ptr noundef %1) #7
  %14 = getelementptr inbounds nuw i8, ptr %8, i64 16
  %15 = load ptr, ptr %14, align 8
  %.not = icmp eq ptr %15, null
  br i1 %.not, label %20, label %16

16:                                               ; preds = %6
  %17 = tail call i64 @strlen(ptr noundef nonnull dereferenceable(1) %15) #8
  %18 = trunc i64 %17 to i32
  %19 = add i32 %18, 1
  br label %20

20:                                               ; preds = %16, %6
  %.0 = phi i32 [ %19, %16 ], [ 0, %6 ]
  tail call void @packmem(ptr noundef %15, i32 noundef %.0, ptr noundef %1) #7
  br label %21

21:                                               ; preds = %20, %2
  ret void
}